target datalayout = "e-m:e-p270:32:32-p271:32:32-p272:64:64-i64:64-i128:128-f80:128-n8:16:32:64-S128"
target triple = "x86_64-pc-linux-gnu"

%struct.DCALbrDecoder = type { ptr, %struct.GetBitContext, i32, i32, i32, i32, i32, i32, i32, i32, i32, i32, i32, i32, i32, i32, i32, i32, i32, i32, i32, [3 x [32 x i8]], [32 x i8], [3 x [32 x i8]], [3 x [32 x i8]], [6 x i32], [6 x [12 x [8 x i8]]], [6 x [3 x [64 x i8]]], [6 x [28 x i8]], [6 x [28 x [8 x i8]]], [6 x i32], [6 x [32 x [8 x i8]]], [6 x [8 x [5 x i8]]], i8, [2 x [6 x [3 x [2 x [8 x float]]]]], [32 x float], [6 x [32 x ptr]], ptr, i32, [4 x i8], [6 x [128 x float]], [128 x float], [64 x float], [5 x [2 x float]], float, [6 x i8], [5 x [32 x [2 x i16]]], [512 x %struct.DCALbrTone], i32, ptr, ptr, ptr, ptr, [8 x i8] }
%struct.GetBitContext = type { ptr, ptr, i32, i32, i32 }
%struct.DCALbrTone = type { i8, i8, i8, i8, [6 x i8], [6 x i8] }

; Function Attrs: nounwind uwtable
define internal i32 @alloc_sample_buffer(ptr noundef %0) #3 {
  %2 = alloca i32, align 4
  %3 = alloca ptr, align 8
  %4 = alloca i32, align 4
  %5 = alloca i32, align 4
  %6 = alloca i32, align 4
  %7 = alloca i32, align 4
  %8 = alloca ptr, align 8
  %9 = alloca i32, align 4
  store ptr %0, ptr %3, align 8, !tbaa !12
  call void @llvm.lifetime.start.p0(i64 4, ptr %4) #12
  store i32 144, ptr %4, align 4, !tbaa !4
  call void @llvm.lifetime.start.p0(i64 4, ptr %5) #12
  %10 = load i32, ptr %4, align 4, !tbaa !4
  %11 = load ptr, ptr %3, align 8, !tbaa !12
  %12 = getelementptr inbounds nuw %struct.DCALbrDecoder, ptr %11, i32 0, i32 7
  %13 = load i32, ptr %12, align 4, !tbaa !56
  %14 = mul nsw i32 %10, %13
  %15 = load ptr, ptr %3, align 8, !tbaa !12
  %16 = getelementptr inbounds nuw %struct.DCALbrDecoder, ptr %15, i32 0, i32 14
  %17 = load i32, ptr %16, align 8, !tbaa !57
  %18 = mul nsw i32 %14, %17
  store i32 %18, ptr %5, align 4, !tbaa !4
  call void @llvm.lifetime.start.p0(i64 4, ptr %6) #12
  call void @llvm.lifetime.start.p0(i64 4, ptr %7) #12
  call void @llvm.lifetime.start.p0(i64 8, ptr %8) #12
  %19 = load ptr, ptr %3, align 8, !tbaa !12
  %20 = getelementptr inbounds nuw %struct.DCALbrDecoder, ptr %19, i32 0, i32 37
  %21 = load ptr, ptr %3, align 8, !tbaa !12
  %22 = getelementptr inbounds nuw %struct.DCALbrDecoder, ptr %21, i32 0, i32 38
  %23 = load i32, ptr %5, align 4, !tbaa !4
  %24 = sext i32 %23 to i64
  %25 = mul i64 %24, 4
  call void @av_fast_mallocz(ptr noundef %20, ptr noundef %22, i64 noundef %25)
  %26 = load ptr, ptr %3, align 8, !tbaa !12
  %27 = getelementptr inbounds nuw %struct.DCALbrDecoder, ptr %26, i32 0, i32 37
  %28 = load ptr, ptr %27, align 16, !tbaa !184
  %29 = icmp ne ptr %28, null
  br i1 %29, label %31, label %30

30:                                               ; preds = %1
  store i32 -12, ptr %2, align 4
  store i32 1, ptr %9, align 4
  br label %71

31:                                               ; preds = %1
  %32 = load ptr, ptr %3, align 8, !tbaa !12
  %33 = getelementptr inbounds nuw %struct.DCALbrDecoder, ptr %32, i32 0, i32 37
  %34 = load ptr, ptr %33, align 16, !tbaa !184
  %35 = getelementptr inbounds float, ptr %34, i64 8
  store ptr %35, ptr %8, align 8, !tbaa !142
  store i32 0, ptr %6, align 4, !tbaa !4
  br label %36

36:                                               ; preds = %67, %31
  %37 = load i32, ptr %6, align 4, !tbaa !4
  %38 = load ptr, ptr %3, align 8, !tbaa !12
  %39 = getelementptr inbounds nuw %struct.DCALbrDecoder, ptr %38, i32 0, i32 7
  %40 = load i32, ptr %39, align 4, !tbaa !56
  %41 = icmp slt i32 %37, %40
  br i1 %41, label %42, label %70

42:                                               ; preds = %36
  store i32 0, ptr %7, align 4, !tbaa !4
  br label %43

43:                                               ; preds = %63, %42
  %44 = load i32, ptr %7, align 4, !tbaa !4
  %45 = load ptr, ptr %3, align 8, !tbaa !12
  %46 = getelementptr inbounds nuw %struct.DCALbrDecoder, ptr %45, i32 0, i32 14
  %47 = load i32, ptr %46, align 8, !tbaa !57
  %48 = icmp slt i32 %44, %47
  br i1 %48, label %49, label %66

49:                                               ; preds = %43
  %50 = load ptr, ptr %8, align 8, !tbaa !142
  %51 = load ptr, ptr %3, align 8, !tbaa !12
  %52 = getelementptr inbounds nuw %struct.DCALbrDecoder, ptr %51, i32 0, i32 36
  %53 = load i32, ptr %6, align 4, !tbaa !4
  %54 = sext i32 %53 to i64
  %55 = getelementptr inbounds [6 x [32 x ptr]], ptr %52, i64 0, i64 %54
  %56 = load i32, ptr %7, align 4, !tbaa !4
  %57 = sext i32 %56 to i64
  %58 = getelementptr inbounds [32 x ptr], ptr %55, i64 0, i64 %57
  store ptr %50, ptr %58, align 8, !tbaa !142
  %59 = load i32, ptr %4, align 4, !tbaa !4
  %60 = load ptr, ptr %8, align 8, !tbaa !142
  %61 = sext i32 %59 to i64
  %62 = getelementptr inbounds float, ptr %60, i64 %61
  store ptr %62, ptr %8, align 8, !tbaa !142
  br label %63

63:                                               ; preds = %49
  %64 = load i32, ptr %7, align 4, !tbaa !4
  %65 = add nsw i32 %64, 1
  store i32 %65, ptr %7, align 4, !tbaa !4
  br label %43, !llvm.loop !185

66:                                               ; preds = %43
  br label %67

67:                                               ; preds = %66
  %68 = load i32, ptr %6, align 4, !tbaa !4
  %69 = add nsw i32 %68, 1
  store i32 %69, ptr %6, align 4, !tbaa !4
  br label %36, !llvm.loop !186

70:                                               ; preds = %36
  store i32 0, ptr %2, align 4
  store i32 1, ptr %9, align 4
  br label %71

71:                                               ; preds = %70, %30
  call void @llvm.lifetime.end.p0(i64 8, ptr %8) #12
  call void @llvm.lifetime.end.p0(i64 4, ptr %7) #12
  call void @llvm.lifetime.end.p0(i64 4, ptr %6) #12
  call void @llvm.lifetime.end.p0(i64 4, ptr %5) #12
  call void @llvm.lifetime.end.p0(i64 4, ptr %4) #12
  %72 = load i32, ptr %2, align 4
  ret i32 %72
}