; Function Attrs: nounwind uwtable
define internal fastcc range(i32 -12, 1) i32 @alloc_sample_buffer(ptr noundef %0) unnamed_addr #3 {
  %2 = getelementptr inbounds nuw i8, ptr %0, i64 60
  %3 = load i32, ptr %2, align 4, !tbaa !27
  %4 = mul nsw i32 %3, 144
  %5 = getelementptr inbounds nuw i8, ptr %0, i64 88
  %6 = load i32, ptr %5, align 8, !tbaa !39
  %7 = mul nsw i32 %4, %6
  %8 = getelementptr inbounds nuw i8, ptr %0, i64 9472
  %9 = getelementptr inbounds nuw i8, ptr %0, i64 9480
  %10 = sext i32 %7 to i64
  %11 = shl nsw i64 %10, 2
  tail call void @av_fast_mallocz(ptr noundef nonnull %8, ptr noundef nonnull %9, i64 noundef %11) #12
  %12 = load ptr, ptr %8, align 16, !tbaa !179
  %.not = icmp eq ptr %12, null
  br i1 %.not, label %.loopexit, label %13

13:                                               ; preds = %1
  %14 = load i32, ptr %2, align 4, !tbaa !27
  %15 = icmp sgt i32 %14, 0
  br i1 %15, label %.preheader.lr.ph, label %.loopexit

.preheader.lr.ph:                                 ; preds = %13
  %16 = load i32, ptr %5, align 8, !tbaa !39
  %17 = icmp sgt i32 %16, 0
  %18 = getelementptr inbounds nuw i8, ptr %0, i64 7936
  br i1 %17, label %.preheader.us.preheader, label %.loopexit

.preheader.us.preheader:                          ; preds = %.preheader.lr.ph
  %19 = getelementptr inbounds nuw i8, ptr %12, i64 32
  %wide.trip.count33 = zext nneg i32 %14 to i64
  %wide.trip.count = zext nneg i32 %16 to i64
  br label %.preheader.us

.preheader.us:                                    ; preds = %.preheader.us.preheader, %._crit_edge.us
  %indvars.iv30 = phi i64 [ 0, %.preheader.us.preheader ], [ %indvars.iv.next31, %._crit_edge.us ]
  %.027.us = phi ptr [ %19, %.preheader.us.preheader ], [ %22, %._crit_edge.us ]
  br label %20

20:                                               ; preds = %.preheader.us, %20
  %indvars.iv = phi i64 [ 0, %.preheader.us ], [ %indvars.iv.next, %20 ]
  %.125.us = phi ptr [ %.027.us, %.preheader.us ], [ %22, %20 ]
  %21 = getelementptr inbounds nuw [6 x [32 x ptr]], ptr %18, i64 0, i64 %indvars.iv30, i64 %indvars.iv
  store ptr %.125.us, ptr %21, align 8, !tbaa !132
  %22 = getelementptr inbounds nuw i8, ptr %.125.us, i64 576
  %indvars.iv.next = add nuw nsw i64 %indvars.iv, 1
  %exitcond.not = icmp eq i64 %indvars.iv.next, %wide.trip.count
  br i1 %exitcond.not, label %._crit_edge.us, label %20, !llvm.loop !180

._crit_edge.us:                                   ; preds = %20
  %indvars.iv.next31 = add nuw nsw i64 %indvars.iv30, 1
  %exitcond34.not = icmp eq i64 %indvars.iv.next31, %wide.trip.count33
  br i1 %exitcond34.not, label %.loopexit, label %.preheader.us, !llvm.loop !181

.loopexit:                                        ; preds = %._crit_edge.us, %.preheader.lr.ph, %13, %1
  %.022 = phi i32 [ -12, %1 ], [ 0, %13 ], [ 0, %.preheader.lr.ph ], [ 0, %._crit_edge.us ]
  ret i32 %.022
}